; ModuleID = 'source-C-CXX/52/453.c'
source_filename = "source-C-CXX/52/453.c"
target datalayout = "e-m:e-p270:32:32-p271:32:32-p272:64:64-i64:64-f80:128-n8:16:32:64-S128"
target triple = "x86_64-pc-linux-gnu"

@.str = private unnamed_addr constant [3 x i8] c"%d\00", align 1

; Function Attrs: nofree nounwind sspstrong uwtable
define dso_local i32 @main() local_unnamed_addr #0 {
  %1 = alloca i32, align 4
  %2 = alloca [300 x i32], align 16
  %3 = bitcast i32* %1 to i8*
  call void @llvm.lifetime.start.p0i8(i64 4, i8* nonnull %3) #4
  %4 = bitcast [300 x i32]* %2 to i8*
  call void @llvm.lifetime.start.p0i8(i64 1200, i8* nonnull %4) #4
  %5 = call i32 (i8*, ...) @__isoc99_scanf(i8* getelementptr inbounds ([3 x i8], [3 x i8]* @.str, i64 0, i64 0), i32* nonnull %1)
  %6 = load i32, i32* %1, align 4, !tbaa !5
  %7 = icmp sgt i32 %6, 0
  br i1 %7, label %13, label %51

8:                                                ; preds = %34
  %9 = icmp sgt i32 %35, -1
  br i1 %9, label %10, label %51

10:                                               ; preds = %8
  %11 = zext i32 %35 to i64
  %12 = zext i32 %36 to i64
  br label %40

13:                                               ; preds = %0, %34
  %14 = phi i32 [ %36, %34 ], [ 0, %0 ]
  %15 = phi i32 [ %37, %34 ], [ 0, %0 ]
  %16 = sext i32 %14 to i64
  %17 = getelementptr inbounds [300 x i32], [300 x i32]* %2, i64 0, i64 %16
  %18 = call i32 (i8*, ...) @__isoc99_scanf(i8* getelementptr inbounds ([3 x i8], [3 x i8]* @.str, i64 0, i64 0), i32* nonnull %17)
  %19 = icmp sgt i32 %14, 0
  br i1 %19, label %20, label %34

20:                                               ; preds = %13, %20
  %21 = phi i64 [ %31, %20 ], [ 0, %13 ]
  %22 = phi i32 [ %30, %20 ], [ %14, %13 ]
  %23 = getelementptr inbounds [300 x i32], [300 x i32]* %2, i64 0, i64 %21
  %24 = load i32, i32* %23, align 4, !tbaa !5
  %25 = sext i32 %22 to i64
  %26 = getelementptr inbounds [300 x i32], [300 x i32]* %2, i64 0, i64 %25
  %27 = load i32, i32* %26, align 4, !tbaa !5
  %28 = icmp eq i32 %24, %27
  %29 = sext i1 %28 to i32
  %30 = add nsw i32 %22, %29
  %31 = add nuw nsw i64 %21, 1
  %32 = sext i32 %30 to i64
  %33 = icmp slt i64 %31, %32
  br i1 %33, label %20, label %34, !llvm.loop !9

34:                                               ; preds = %20, %13
  %35 = phi i32 [ %14, %13 ], [ %30, %20 ]
  %36 = add nsw i32 %35, 1
  %37 = add nuw nsw i32 %15, 1
  %38 = load i32, i32* %1, align 4, !tbaa !5
  %39 = icmp slt i32 %37, %38
  br i1 %39, label %13, label %8, !llvm.loop !11

40:                                               ; preds = %10, %48
  %41 = phi i64 [ 0, %10 ], [ %49, %48 ]
  %42 = getelementptr inbounds [300 x i32], [300 x i32]* %2, i64 0, i64 %41
  %43 = load i32, i32* %42, align 4, !tbaa !5
  %44 = call i32 (i8*, ...) @printf(i8* nonnull dereferenceable(1) getelementptr inbounds ([3 x i8], [3 x i8]* @.str, i64 0, i64 0), i32 %43)
  %45 = icmp eq i64 %41, %11
  br i1 %45, label %48, label %46

46:                                               ; preds = %40
  %47 = call i32 @putchar(i32 44)
  br label %48

48:                                               ; preds = %40, %46
  %49 = add nuw nsw i64 %41, 1
  %50 = icmp eq i64 %49, %12
  br i1 %50, label %51, label %40, !llvm.loop !12

51:                                               ; preds = %48, %0, %8
  call void @llvm.lifetime.end.p0i8(i64 1200, i8* nonnull %4) #4
  call void @llvm.lifetime.end.p0i8(i64 4, i8* nonnull %3) #4
  ret i32 0
}

; Function Attrs: argmemonly mustprogress nofree nosync nounwind willreturn
declare void @llvm.lifetime.start.p0i8(i64 immarg, i8* nocapture) #1

; Function Attrs: nofree nounwind
declare noundef i32 @__isoc99_scanf(i8* nocapture noundef readonly, ...) local_unnamed_addr #2

; Function Attrs: nofree nounwind
declare noundef i32 @printf(i8* nocapture noundef readonly, ...) local_unnamed_addr #2

; Function Attrs: argmemonly mustprogress nofree nosync nounwind willreturn
declare void @llvm.lifetime.end.p0i8(i64 immarg, i8* nocapture) #1

; Function Attrs: nofree nounwind
declare noundef i32 @putchar(i32 noundef) local_unnamed_addr #3


!llvm.module.flags = !{!0, !1, !2, !3}
!llvm.ident = !{!4}

!0 = !{i32 1, !"wchar_size", i32 4}
!1 = !{i32 7, !"PIC Level", i32 2}
!2 = !{i32 7, !"PIE Level", i32 2}
!3 = !{i32 7, !"uwtable", i32 1}
!4 = !{!"clang version 13.0.0"}
!5 = !{!6, !6, i64 0}
!6 = !{!"int", !7, i64 0}
!7 = !{!"omnipotent char", !8, i64 0}
!8 = !{!"Simple C/C++ TBAA"}
!9 = distinct !{!9, !10}
!10 = !{!"llvm.loop.mustprogress"}
!11 = distinct !{!11, !10}
!12 = distinct !{!12, !10}
